target datalayout = "e-m:e-p270:32:32-p271:32:32-p272:64:64-i64:64-i128:128-f80:128-n8:16:32:64-S128"
target triple = "x86_64-pc-linux-gnu"

%struct.cbb_buffer_st = type { ptr, i64, i64, i8 }
%struct.cbb_st = type { ptr, ptr, i64, i8, i8, i8 }

; Function Attrs: nounwind uwtable
define internal i32 @cbb_buffer_reserve(ptr noundef %0, ptr noundef %1, i64 noundef %2) #0 {
  %4 = alloca i32, align 4
  %5 = alloca ptr, align 8
  %6 = alloca ptr, align 8
  %7 = alloca i64, align 8
  %8 = alloca i64, align 8
  %9 = alloca i32, align 4
  %10 = alloca i64, align 8
  %11 = alloca ptr, align 8
  store ptr %0, ptr %5, align 8, !tbaa !15
  store ptr %1, ptr %6, align 8, !tbaa !25
  store i64 %2, ptr %7, align 8, !tbaa !11
  call void @llvm.lifetime.start.p0(i64 8, ptr %8) #7
  %12 = load ptr, ptr %5, align 8, !tbaa !15
  %13 = icmp eq ptr %12, null
  br i1 %13, label %14, label %15

14:                                               ; preds = %3
  store i32 0, ptr %4, align 4
  store i32 1, ptr %9, align 4
  br label %87

15:                                               ; preds = %3
  %16 = load ptr, ptr %5, align 8, !tbaa !15
  %17 = getelementptr inbounds nuw %struct.cbb_buffer_st, ptr %16, i32 0, i32 1
  %18 = load i64, ptr %17, align 8, !tbaa !19
  %19 = load i64, ptr %7, align 8, !tbaa !11
  %20 = add i64 %18, %19
  store i64 %20, ptr %8, align 8, !tbaa !11
  %21 = load i64, ptr %8, align 8, !tbaa !11
  %22 = load ptr, ptr %5, align 8, !tbaa !15
  %23 = getelementptr inbounds nuw %struct.cbb_buffer_st, ptr %22, i32 0, i32 1
  %24 = load i64, ptr %23, align 8, !tbaa !19
  %25 = icmp ult i64 %21, %24
  br i1 %25, label %26, label %27

26:                                               ; preds = %15
  store i32 0, ptr %4, align 4
  store i32 1, ptr %9, align 4
  br label %87

27:                                               ; preds = %15
  %28 = load i64, ptr %8, align 8, !tbaa !11
  %29 = load ptr, ptr %5, align 8, !tbaa !15
  %30 = getelementptr inbounds nuw %struct.cbb_buffer_st, ptr %29, i32 0, i32 2
  %31 = load i64, ptr %30, align 8, !tbaa !20
  %32 = icmp ugt i64 %28, %31
  br i1 %32, label %33, label %74

33:                                               ; preds = %27
  call void @llvm.lifetime.start.p0(i64 8, ptr %10) #7
  %34 = load ptr, ptr %5, align 8, !tbaa !15
  %35 = getelementptr inbounds nuw %struct.cbb_buffer_st, ptr %34, i32 0, i32 2
  %36 = load i64, ptr %35, align 8, !tbaa !20
  %37 = mul i64 %36, 2
  store i64 %37, ptr %10, align 8, !tbaa !11
  call void @llvm.lifetime.start.p0(i64 8, ptr %11) #7
  %38 = load ptr, ptr %5, align 8, !tbaa !15
  %39 = getelementptr inbounds nuw %struct.cbb_buffer_st, ptr %38, i32 0, i32 3
  %40 = load i8, ptr %39, align 8, !tbaa !21
  %41 = icmp ne i8 %40, 0
  br i1 %41, label %43, label %42

42:                                               ; preds = %33
  store i32 0, ptr %4, align 4
  store i32 1, ptr %9, align 4
  br label %71

43:                                               ; preds = %33
  %44 = load i64, ptr %10, align 8, !tbaa !11
  %45 = load ptr, ptr %5, align 8, !tbaa !15
  %46 = getelementptr inbounds nuw %struct.cbb_buffer_st, ptr %45, i32 0, i32 2
  %47 = load i64, ptr %46, align 8, !tbaa !20
  %48 = icmp ult i64 %44, %47
  br i1 %48, label %53, label %49

49:                                               ; preds = %43
  %50 = load i64, ptr %10, align 8, !tbaa !11
  %51 = load i64, ptr %8, align 8, !tbaa !11
  %52 = icmp ult i64 %50, %51
  br i1 %52, label %53, label %55

53:                                               ; preds = %49, %43
  %54 = load i64, ptr %8, align 8, !tbaa !11
  store i64 %54, ptr %10, align 8, !tbaa !11
  br label %55

55:                                               ; preds = %53, %49
  %56 = load ptr, ptr %5, align 8, !tbaa !15
  %57 = getelementptr inbounds nuw %struct.cbb_buffer_st, ptr %56, i32 0, i32 0
  %58 = load ptr, ptr %57, align 8, !tbaa !17
  %59 = load i64, ptr %10, align 8, !tbaa !11
  %60 = call ptr @realloc(ptr noundef %58, i64 noundef %59) #9
  store ptr %60, ptr %11, align 8, !tbaa !13
  %61 = load ptr, ptr %11, align 8, !tbaa !13
  %62 = icmp eq ptr %61, null
  br i1 %62, label %63, label %64

63:                                               ; preds = %55
  store i32 0, ptr %4, align 4
  store i32 1, ptr %9, align 4
  br label %71

64:                                               ; preds = %55
  %65 = load ptr, ptr %11, align 8, !tbaa !13
  %66 = load ptr, ptr %5, align 8, !tbaa !15
  %67 = getelementptr inbounds nuw %struct.cbb_buffer_st, ptr %66, i32 0, i32 0
  store ptr %65, ptr %67, align 8, !tbaa !17
  %68 = load i64, ptr %10, align 8, !tbaa !11
  %69 = load ptr, ptr %5, align 8, !tbaa !15
  %70 = getelementptr inbounds nuw %struct.cbb_buffer_st, ptr %69, i32 0, i32 2
  store i64 %68, ptr %70, align 8, !tbaa !20
  store i32 0, ptr %9, align 4
  br label %71

71:                                               ; preds = %64, %63, %42
  call void @llvm.lifetime.end.p0(i64 8, ptr %11) #7
  call void @llvm.lifetime.end.p0(i64 8, ptr %10) #7
  %72 = load i32, ptr %9, align 4
  switch i32 %72, label %87 [
    i32 0, label %73
  ]

73:                                               ; preds = %71
  br label %74

74:                                               ; preds = %73, %27
  %75 = load ptr, ptr %6, align 8, !tbaa !25
  %76 = icmp ne ptr %75, null
  br i1 %76, label %77, label %86

77:                                               ; preds = %74
  %78 = load ptr, ptr %5, align 8, !tbaa !15
  %79 = getelementptr inbounds nuw %struct.cbb_buffer_st, ptr %78, i32 0, i32 0
  %80 = load ptr, ptr %79, align 8, !tbaa !17
  %81 = load ptr, ptr %5, align 8, !tbaa !15
  %82 = getelementptr inbounds nuw %struct.cbb_buffer_st, ptr %81, i32 0, i32 1
  %83 = load i64, ptr %82, align 8, !tbaa !19
  %84 = getelementptr inbounds nuw i8, ptr %80, i64 %83
  %85 = load ptr, ptr %6, align 8, !tbaa !25
  store ptr %84, ptr %85, align 8, !tbaa !13
  br label %86

86:                                               ; preds = %77, %74
  store i32 1, ptr %4, align 4
  store i32 1, ptr %9, align 4
  br label %87

87:                                               ; preds = %86, %71, %26, %14
  call void @llvm.lifetime.end.p0(i64 8, ptr %8) #7
  %88 = load i32, ptr %4, align 4
  ret i32 %88
}

; Function Attrs: nounwind uwtable
define internal i32 @cbb_buffer_add(ptr noundef %0, ptr noundef %1, i64 noundef %2) #0 {
  %4 = alloca i32, align 4
  %5 = alloca ptr, align 8
  %6 = alloca ptr, align 8
  %7 = alloca i64, align 8
  store ptr %0, ptr %5, align 8, !tbaa !15
  store ptr %1, ptr %6, align 8, !tbaa !25
  store i64 %2, ptr %7, align 8, !tbaa !11
  %8 = load ptr, ptr %5, align 8, !tbaa !15
  %9 = load ptr, ptr %6, align 8, !tbaa !25
  %10 = load i64, ptr %7, align 8, !tbaa !11
  %11 = call i32 @cbb_buffer_reserve(ptr noundef %8, ptr noundef %9, i64 noundef %10)
  %12 = icmp ne i32 %11, 0
  br i1 %12, label %14, label %13

13:                                               ; preds = %3
  store i32 0, ptr %4, align 4
  br label %20

14:                                               ; preds = %3
  %15 = load i64, ptr %7, align 8, !tbaa !11
  %16 = load ptr, ptr %5, align 8, !tbaa !15
  %17 = getelementptr inbounds nuw %struct.cbb_buffer_st, ptr %16, i32 0, i32 1
  %18 = load i64, ptr %17, align 8, !tbaa !19
  %19 = add i64 %18, %15
  store i64 %19, ptr %17, align 8, !tbaa !19
  store i32 1, ptr %4, align 4
  br label %20

20:                                               ; preds = %14, %13
  %21 = load i32, ptr %4, align 4
  ret i32 %21
}

; Function Attrs: nounwind uwtable
define internal i32 @cbb_add_length_prefixed(ptr noundef %0, ptr noundef %1, i64 noundef %2) #0 {
  %4 = alloca i32, align 4
  %5 = alloca ptr, align 8
  %6 = alloca ptr, align 8
  %7 = alloca i64, align 8
  %8 = alloca ptr, align 8
  %9 = alloca i32, align 4
  %10 = alloca i64, align 8
  store ptr %0, ptr %5, align 8, !tbaa !6
  store ptr %1, ptr %6, align 8, !tbaa !6
  store i64 %2, ptr %7, align 8, !tbaa !11
  call void @llvm.lifetime.start.p0(i64 8, ptr %8) #7
  %11 = load ptr, ptr %5, align 8, !tbaa !6
  %12 = call i32 @CBB_flush(ptr noundef %11)
  %13 = icmp ne i32 %12, 0
  br i1 %13, label %15, label %14

14:                                               ; preds = %3
  store i32 0, ptr %4, align 4
  store i32 1, ptr %9, align 4
  br label %56

15:                                               ; preds = %3
  call void @llvm.lifetime.start.p0(i64 8, ptr %10) #7
  %16 = load ptr, ptr %5, align 8, !tbaa !6
  %17 = getelementptr inbounds nuw %struct.cbb_st, ptr %16, i32 0, i32 0
  %18 = load ptr, ptr %17, align 8, !tbaa !22
  %19 = getelementptr inbounds nuw %struct.cbb_buffer_st, ptr %18, i32 0, i32 1
  %20 = load i64, ptr %19, align 8, !tbaa !19
  store i64 %20, ptr %10, align 8, !tbaa !11
  %21 = load ptr, ptr %5, align 8, !tbaa !6
  %22 = getelementptr inbounds nuw %struct.cbb_st, ptr %21, i32 0, i32 0
  %23 = load ptr, ptr %22, align 8, !tbaa !22
  %24 = load i64, ptr %7, align 8, !tbaa !11
  %25 = call i32 @cbb_buffer_add(ptr noundef %23, ptr noundef %8, i64 noundef %24)
  %26 = icmp ne i32 %25, 0
  br i1 %26, label %28, label %27

27:                                               ; preds = %15
  store i32 0, ptr %4, align 4
  store i32 1, ptr %9, align 4
  br label %55

28:                                               ; preds = %15
  %29 = load ptr, ptr %8, align 8, !tbaa !13
  %30 = load i64, ptr %7, align 8, !tbaa !11
  call void @llvm.memset.p0.i64(ptr align 1 %29, i8 0, i64 %30, i1 false)
  %31 = load ptr, ptr %6, align 8, !tbaa !6
  call void @llvm.memset.p0.i64(ptr align 8 %31, i8 0, i64 32, i1 false)
  %32 = load ptr, ptr %5, align 8, !tbaa !6
  %33 = getelementptr inbounds nuw %struct.cbb_st, ptr %32, i32 0, i32 0
  %34 = load ptr, ptr %33, align 8, !tbaa !22
  %35 = load ptr, ptr %6, align 8, !tbaa !6
  %36 = getelementptr inbounds nuw %struct.cbb_st, ptr %35, i32 0, i32 0
  store ptr %34, ptr %36, align 8, !tbaa !22
  %37 = load ptr, ptr %6, align 8, !tbaa !6
  %38 = load ptr, ptr %5, align 8, !tbaa !6
  %39 = getelementptr inbounds nuw %struct.cbb_st, ptr %38, i32 0, i32 1
  store ptr %37, ptr %39, align 8, !tbaa !29
  %40 = load i64, ptr %10, align 8, !tbaa !11
  %41 = load ptr, ptr %5, align 8, !tbaa !6
  %42 = getelementptr inbounds nuw %struct.cbb_st, ptr %41, i32 0, i32 1
  %43 = load ptr, ptr %42, align 8, !tbaa !29
  %44 = getelementptr inbounds nuw %struct.cbb_st, ptr %43, i32 0, i32 2
  store i64 %40, ptr %44, align 8, !tbaa !31
  %45 = load i64, ptr %7, align 8, !tbaa !11
  %46 = trunc i64 %45 to i8
  %47 = load ptr, ptr %5, align 8, !tbaa !6
  %48 = getelementptr inbounds nuw %struct.cbb_st, ptr %47, i32 0, i32 1
  %49 = load ptr, ptr %48, align 8, !tbaa !29
  %50 = getelementptr inbounds nuw %struct.cbb_st, ptr %49, i32 0, i32 3
  store i8 %46, ptr %50, align 8, !tbaa !30
  %51 = load ptr, ptr %5, align 8, !tbaa !6
  %52 = getelementptr inbounds nuw %struct.cbb_st, ptr %51, i32 0, i32 1
  %53 = load ptr, ptr %52, align 8, !tbaa !29
  %54 = getelementptr inbounds nuw %struct.cbb_st, ptr %53, i32 0, i32 4
  store i8 0, ptr %54, align 1, !tbaa !32
  store i32 1, ptr %4, align 4
  store i32 1, ptr %9, align 4
  br label %55

55:                                               ; preds = %28, %27
  call void @llvm.lifetime.end.p0(i64 8, ptr %10) #7
  br label %56

56:                                               ; preds = %55, %14
  call void @llvm.lifetime.end.p0(i64 8, ptr %8) #7
  %57 = load i32, ptr %4, align 4
  ret i32 %57
}

; Function Attrs: nounwind uwtable
define hidden i32 @CBB_add_u8_length_prefixed(ptr noundef %0, ptr noundef %1) #0 {
  %3 = alloca ptr, align 8
  %4 = alloca ptr, align 8
  store ptr %0, ptr %3, align 8, !tbaa !6
  store ptr %1, ptr %4, align 8, !tbaa !6
  %5 = load ptr, ptr %3, align 8, !tbaa !6
  %6 = load ptr, ptr %4, align 8, !tbaa !6
  %7 = call i32 @cbb_add_length_prefixed(ptr noundef %5, ptr noundef %6, i64 noundef 1)
  ret i32 %7
}